---
triple:          'arm64-apple-darwin'
binary-path:     output
relocations:
  - { offsetInCU: 0x2F18, offset: 0x2F18, size: 0x8, addend: 0x0, symName: __ZNSt3__124__put_character_sequenceB8ue170006IcNS_11char_traitsIcEEEERNS_13basic_ostreamIT_T0_EES7_PKS4_m, symObjAddr: 0x6EC, symBinAddr: 0x100001654, symSize: 0x1EC }
  - { offsetInCU: 0x486C, offset: 0x486C, size: 0x8, addend: 0x0, symName: __ZNSt3__1lsB8ue170006INS_11char_traitsIcEEEERNS_13basic_ostreamIcT_EES6_PKc, symObjAddr: 0x470, symBinAddr: 0x1000013D8, symSize: 0x48 }
  - { offsetInCU: 0x48B2, offset: 0x48B2, size: 0x8, addend: 0x0, symName: __ZNSt3__14endlB8ue170006IcNS_11char_traitsIcEEEERNS_13basic_ostreamIT_T0_EES7_, symObjAddr: 0x4E4, symBinAddr: 0x10000144C, symSize: 0x58 }
  - { offsetInCU: 0x48F2, offset: 0x48F2, size: 0x8, addend: 0x0, symName: __ZNSt3__116__pad_and_outputB8ue170006IcNS_11char_traitsIcEEEENS_19ostreambuf_iteratorIT_T0_EES6_PKS4_S8_S8_RNS_8ios_baseES4_, symObjAddr: 0x928, symBinAddr: 0x100001890, symSize: 0x240 }
  - { offsetInCU: 0x49C1, offset: 0x49C1, size: 0x8, addend: 0x0, symName: __ZNSt3__112__to_addressB8ue170006IKcEEPT_S3_, symObjAddr: 0xE70, symBinAddr: 0x100001DD8, symSize: 0x14 }
  - { offsetInCU: 0x4A29, offset: 0x4A29, size: 0x8, addend: 0x0, symName: __ZNSt3__19use_facetB8ue170006INS_5ctypeIcEEEERKT_RKNS_6localeE, symObjAddr: 0x10F0, symBinAddr: 0x100002058, symSize: 0x2C }
  - { offsetInCU: 0x4EF6, offset: 0x4EF6, size: 0x8, addend: 0x0, symName: __ZNSt3__118__constexpr_strlenB8ue170006EPKc, symObjAddr: 0x1188, symBinAddr: 0x1000020F0, symSize: 0x24 }
  - { offsetInCU: 0x7DE5, offset: 0x7DE5, size: 0x8, addend: 0x0, symName: _main, symObjAddr: 0x0, symBinAddr: 0x100000F68, symSize: 0x470 }
  - { offsetInCU: 0x7E67, offset: 0x7E67, size: 0x8, addend: 0x0, symName: __ZNSt3__113basic_ostreamIcNS_11char_traitsIcEEElsB8ue170006EPFRS3_S4_E, symObjAddr: 0x4B8, symBinAddr: 0x100001420, symSize: 0x2C }
  - { offsetInCU: 0x7E99, offset: 0x7E99, size: 0x8, addend: 0x0, symName: __Z11printHeaderRNSt3__113basic_ostreamIcNS_11char_traitsIcEEEEPKcS6_, symObjAddr: 0x53C, symBinAddr: 0x1000014A4, symSize: 0x110 }
  - { offsetInCU: 0x7EEB, offset: 0x7EEB, size: 0x8, addend: 0x0, symName: __ZNSt3__19basic_iosIcNS_11char_traitsIcEEE4fillB8ue170006Ec, symObjAddr: 0x64C, symBinAddr: 0x1000015B4, symSize: 0x74 }
  - { offsetInCU: 0x7F2F, offset: 0x7F2F, size: 0x8, addend: 0x0, symName: __ZNSt3__18ios_base5widthB8ue170006El, symObjAddr: 0x6C0, symBinAddr: 0x100001628, symSize: 0x2C }
  - { offsetInCU: 0x7F73, offset: 0x7F73, size: 0x8, addend: 0x0, symName: __ZNSt3__111char_traitsIcE6lengthB8ue170006EPKc, symObjAddr: 0x8D8, symBinAddr: 0x100001840, symSize: 0x34 }
  - { offsetInCU: 0x7FB3, offset: 0x7FB3, size: 0x8, addend: 0x0, symName: __ZNKSt3__113basic_ostreamIcNS_11char_traitsIcEEE6sentrycvbB8ue170006Ev, symObjAddr: 0x90C, symBinAddr: 0x100001874, symSize: 0x1C }
  - { offsetInCU: 0x7FD7, offset: 0x7FD7, size: 0x8, addend: 0x0, symName: __ZNSt3__119ostreambuf_iteratorIcNS_11char_traitsIcEEEC1B8ue170006ERNS_13basic_ostreamIcS2_EE, symObjAddr: 0xB68, symBinAddr: 0x100001AD0, symSize: 0x34 }
  - { offsetInCU: 0x800D, offset: 0x800D, size: 0x8, addend: 0x0, symName: __ZNKSt3__18ios_base5flagsB8ue170006Ev, symObjAddr: 0xB9C, symBinAddr: 0x100001B04, symSize: 0x18 }
  - { offsetInCU: 0x8033, offset: 0x8033, size: 0x8, addend: 0x0, symName: __ZNKSt3__19basic_iosIcNS_11char_traitsIcEEE4fillB8ue170006Ev, symObjAddr: 0xBB4, symBinAddr: 0x100001B1C, symSize: 0x64 }
  - { offsetInCU: 0x8059, offset: 0x8059, size: 0x8, addend: 0x0, symName: __ZNKSt3__119ostreambuf_iteratorIcNS_11char_traitsIcEEE6failedB8ue170006Ev, symObjAddr: 0xC18, symBinAddr: 0x100001B80, symSize: 0x24 }
  - { offsetInCU: 0x807D, offset: 0x807D, size: 0x8, addend: 0x0, symName: __ZNSt3__19basic_iosIcNS_11char_traitsIcEEE8setstateB8ue170006Ej, symObjAddr: 0xC3C, symBinAddr: 0x100001BA4, symSize: 0x2C }
  - { offsetInCU: 0x80B0, offset: 0x80B0, size: 0x8, addend: 0x0, symName: __ZNKSt3__18ios_base5widthB8ue170006Ev, symObjAddr: 0xC74, symBinAddr: 0x100001BDC, symSize: 0x18 }
  - { offsetInCU: 0x80D6, offset: 0x80D6, size: 0x8, addend: 0x0, symName: __ZNSt3__115basic_streambufIcNS_11char_traitsIcEEE5sputnB8ue170006EPKcl, symObjAddr: 0xC8C, symBinAddr: 0x100001BF4, symSize: 0x3C }
  - { offsetInCU: 0x8116, offset: 0x8116, size: 0x8, addend: 0x0, symName: __ZNSt3__112basic_stringIcNS_11char_traitsIcEENS_9allocatorIcEEEC1B8ue170006Emc, symObjAddr: 0xCC8, symBinAddr: 0x100001C30, symSize: 0x3C }
  - { offsetInCU: 0x815C, offset: 0x815C, size: 0x8, addend: 0x0, symName: __ZNKSt3__112basic_stringIcNS_11char_traitsIcEENS_9allocatorIcEEE4dataB8ue170006Ev, symObjAddr: 0xD04, symBinAddr: 0x100001C6C, symSize: 0x28 }
  - { offsetInCU: 0x8180, offset: 0x8180, size: 0x8, addend: 0x0, symName: __ZNSt3__112basic_stringIcNS_11char_traitsIcEENS_9allocatorIcEEEC2B8ue170006Emc, symObjAddr: 0xD2C, symBinAddr: 0x100001C94, symSize: 0x4C }
  - { offsetInCU: 0x81CB, offset: 0x81CB, size: 0x8, addend: 0x0, symName: __ZNSt3__117__compressed_pairINS_12basic_stringIcNS_11char_traitsIcEENS_9allocatorIcEEE5__repES5_EC1B8ue170006INS_18__default_init_tagESA_EEOT_OT0_, symObjAddr: 0xD78, symBinAddr: 0x100001CE0, symSize: 0x3C }
  - { offsetInCU: 0x8221, offset: 0x8221, size: 0x8, addend: 0x0, symName: __ZNSt3__117__compressed_pairINS_12basic_stringIcNS_11char_traitsIcEENS_9allocatorIcEEE5__repES5_EC2B8ue170006INS_18__default_init_tagESA_EEOT_OT0_, symObjAddr: 0xDB4, symBinAddr: 0x100001D1C, symSize: 0x3C }
  - { offsetInCU: 0x8277, offset: 0x8277, size: 0x8, addend: 0x0, symName: __ZNSt3__122__compressed_pair_elemINS_12basic_stringIcNS_11char_traitsIcEENS_9allocatorIcEEE5__repELi0ELb0EEC2B8ue170006ENS_18__default_init_tagE, symObjAddr: 0xDF0, symBinAddr: 0x100001D58, symSize: 0x14 }
  - { offsetInCU: 0x82A9, offset: 0x82A9, size: 0x8, addend: 0x0, symName: __ZNSt3__122__compressed_pair_elemINS_9allocatorIcEELi1ELb1EEC2B8ue170006ENS_18__default_init_tagE, symObjAddr: 0xE04, symBinAddr: 0x100001D6C, symSize: 0x2C }
  - { offsetInCU: 0x82DB, offset: 0x82DB, size: 0x8, addend: 0x0, symName: __ZNSt3__19allocatorIcEC2B8ue170006Ev, symObjAddr: 0xE30, symBinAddr: 0x100001D98, symSize: 0x2C }
  - { offsetInCU: 0x8303, offset: 0x8303, size: 0x8, addend: 0x0, symName: __ZNSt3__116__non_trivial_ifILb1ENS_9allocatorIcEEEC2B8ue170006Ev, symObjAddr: 0xE5C, symBinAddr: 0x100001DC4, symSize: 0x14 }
  - { offsetInCU: 0x832B, offset: 0x832B, size: 0x8, addend: 0x0, symName: __ZNKSt3__112basic_stringIcNS_11char_traitsIcEENS_9allocatorIcEEE13__get_pointerB8ue170006Ev, symObjAddr: 0xE84, symBinAddr: 0x100001DEC, symSize: 0x54 }
  - { offsetInCU: 0x834F, offset: 0x834F, size: 0x8, addend: 0x0, symName: __ZNKSt3__112basic_stringIcNS_11char_traitsIcEENS_9allocatorIcEEE9__is_longB8ue170006Ev, symObjAddr: 0xED8, symBinAddr: 0x100001E40, symSize: 0x38 }
  - { offsetInCU: 0x8373, offset: 0x8373, size: 0x8, addend: 0x0, symName: __ZNKSt3__112basic_stringIcNS_11char_traitsIcEENS_9allocatorIcEEE18__get_long_pointerB8ue170006Ev, symObjAddr: 0xF10, symBinAddr: 0x100001E78, symSize: 0x28 }
  - { offsetInCU: 0x8397, offset: 0x8397, size: 0x8, addend: 0x0, symName: __ZNKSt3__112basic_stringIcNS_11char_traitsIcEENS_9allocatorIcEEE19__get_short_pointerB8ue170006Ev, symObjAddr: 0xF38, symBinAddr: 0x100001EA0, symSize: 0x28 }
  - { offsetInCU: 0x83BB, offset: 0x83BB, size: 0x8, addend: 0x0, symName: __ZNKSt3__117__compressed_pairINS_12basic_stringIcNS_11char_traitsIcEENS_9allocatorIcEEE5__repES5_E5firstB8ue170006Ev, symObjAddr: 0xF60, symBinAddr: 0x100001EC8, symSize: 0x24 }
  - { offsetInCU: 0x83DF, offset: 0x83DF, size: 0x8, addend: 0x0, symName: __ZNKSt3__122__compressed_pair_elemINS_12basic_stringIcNS_11char_traitsIcEENS_9allocatorIcEEE5__repELi0ELb0EE5__getB8ue170006Ev, symObjAddr: 0xF84, symBinAddr: 0x100001EEC, symSize: 0x14 }
  - { offsetInCU: 0x8403, offset: 0x8403, size: 0x8, addend: 0x0, symName: __ZNSt3__114pointer_traitsIPKcE10pointer_toB8ue170006ERS1_, symObjAddr: 0xF98, symBinAddr: 0x100001F00, symSize: 0x14 }
  - { offsetInCU: 0x8425, offset: 0x8425, size: 0x8, addend: 0x0, symName: __ZNSt3__119ostreambuf_iteratorIcNS_11char_traitsIcEEEC2B8ue170006ERNS_13basic_ostreamIcS2_EE, symObjAddr: 0xFAC, symBinAddr: 0x100001F14, symSize: 0x54 }
  - { offsetInCU: 0x845B, offset: 0x845B, size: 0x8, addend: 0x0, symName: __ZNKSt3__19basic_iosIcNS_11char_traitsIcEEE5rdbufB8ue170006Ev, symObjAddr: 0x1000, symBinAddr: 0x100001F68, symSize: 0x24 }
  - { offsetInCU: 0x8481, offset: 0x8481, size: 0x8, addend: 0x0, symName: __ZNKSt3__18ios_base5rdbufB8ue170006Ev, symObjAddr: 0x1024, symBinAddr: 0x100001F8C, symSize: 0x18 }
  - { offsetInCU: 0x84A5, offset: 0x84A5, size: 0x8, addend: 0x0, symName: __ZNSt3__111char_traitsIcE11eq_int_typeB8ue170006Eii, symObjAddr: 0x103C, symBinAddr: 0x100001FA4, symSize: 0x28 }
  - { offsetInCU: 0x84D7, offset: 0x84D7, size: 0x8, addend: 0x0, symName: __ZNSt3__111char_traitsIcE3eofB8ue170006Ev, symObjAddr: 0x1064, symBinAddr: 0x100001FCC, symSize: 0x8 }
  - { offsetInCU: 0x84EA, offset: 0x84EA, size: 0x8, addend: 0x0, symName: __ZNKSt3__19basic_iosIcNS_11char_traitsIcEEE5widenB8ue170006Ec, symObjAddr: 0x106C, symBinAddr: 0x100001FD4, symSize: 0x84 }
  - { offsetInCU: 0x8556, offset: 0x8556, size: 0x8, addend: 0x0, symName: __ZNKSt3__15ctypeIcE5widenB8ue170006Ec, symObjAddr: 0x111C, symBinAddr: 0x100002084, symSize: 0x38 }
  - { offsetInCU: 0x8589, offset: 0x8589, size: 0x8, addend: 0x0, symName: __ZNSt3__18ios_base8setstateB8ue170006Ej, symObjAddr: 0x1154, symBinAddr: 0x1000020BC, symSize: 0x34 }
  - { offsetInCU: 0x4316, offset: 0xCA13, size: 0x8, addend: 0x0, symName: __ZNSt3__1lsB8ue170006IcNS_11char_traitsIcEEEERNS_13basic_ostreamIT_T0_EES7_RKNS_8__iom_t5E, symObjAddr: 0x294, symBinAddr: 0x1000023A8, symSize: 0x40 }
  - { offsetInCU: 0x4362, offset: 0xCA5F, size: 0x8, addend: 0x0, symName: __ZNSt3__15fixedB8ue170006ERNS_8ios_baseE, symObjAddr: 0x35C, symBinAddr: 0x100002428, symSize: 0x30 }
  - { offsetInCU: 0x4390, offset: 0xCA8D, size: 0x8, addend: 0x0, symName: __ZNSt3__112setprecisionB8ue170006Ei, symObjAddr: 0x38C, symBinAddr: 0x100002458, symSize: 0x2C }
  - { offsetInCU: 0x638A, offset: 0xEA87, size: 0x8, addend: 0x0, symName: __ZN6senecarsERNSt3__113basic_istreamIcNS0_11char_traitsIcEEEERNS_11BankAccountE, symObjAddr: 0x578, symBinAddr: 0x10000263C, symSize: 0x2C }
  - { offsetInCU: 0x63C4, offset: 0xEAC1, size: 0x8, addend: 0x0, symName: __ZN6senecalsERNSt3__113basic_ostreamIcNS0_11char_traitsIcEEEERKNS_11BankAccountE, symObjAddr: 0x5A4, symBinAddr: 0x100002668, symSize: 0x2C }
  - { offsetInCU: 0x6482, offset: 0xEB7F, size: 0x8, addend: 0x0, symName: __ZN6seneca11BankAccountC2EPKcNS_4DateENS_11DepositInfoEd, symObjAddr: 0x0, symBinAddr: 0x100002114, symSize: 0xC0 }
  - { offsetInCU: 0x64E5, offset: 0xEBE2, size: 0x8, addend: 0x0, symName: __ZN6seneca11BankAccountC1EPKcNS_4DateENS_11DepositInfoEd, symObjAddr: 0xC0, symBinAddr: 0x1000021D4, symSize: 0xA8 }
  - { offsetInCU: 0x6548, offset: 0xEC45, size: 0x8, addend: 0x0, symName: __ZNK6seneca11BankAccount10getBalanceEv, symObjAddr: 0x168, symBinAddr: 0x10000227C, symSize: 0x18 }
  - { offsetInCU: 0x656E, offset: 0xEC6B, size: 0x8, addend: 0x0, symName: __ZNK6seneca11BankAccount7getDateEv, symObjAddr: 0x180, symBinAddr: 0x100002294, symSize: 0x8C }
  - { offsetInCU: 0x6594, offset: 0xEC91, size: 0x8, addend: 0x0, symName: __ZN6seneca11BankAccount10setBalanceEd, symObjAddr: 0x20C, symBinAddr: 0x100002320, symSize: 0x20 }
  - { offsetInCU: 0x65C8, offset: 0xECC5, size: 0x8, addend: 0x0, symName: __ZNK6seneca11BankAccount13writeCurrencyERNSt3__113basic_ostreamIcNS1_11char_traitsIcEEEEd, symObjAddr: 0x22C, symBinAddr: 0x100002340, symSize: 0x68 }
  - { offsetInCU: 0x660A, offset: 0xED07, size: 0x8, addend: 0x0, symName: __ZNSt3__113basic_ostreamIcNS_11char_traitsIcEEElsB8ue170006EPFRNS_8ios_baseES5_E, symObjAddr: 0x31C, symBinAddr: 0x1000023E8, symSize: 0x40 }
  - { offsetInCU: 0x663C, offset: 0xED39, size: 0x8, addend: 0x0, symName: __ZNK6seneca11BankAccount5writeERNSt3__113basic_ostreamIcNS1_11char_traitsIcEEEE, symObjAddr: 0x3B8, symBinAddr: 0x100002484, symSize: 0x90 }
  - { offsetInCU: 0x6670, offset: 0xED6D, size: 0x8, addend: 0x0, symName: __ZN6seneca11BankAccount4readERNSt3__113basic_istreamIcNS1_11char_traitsIcEEEE, symObjAddr: 0x448, symBinAddr: 0x100002514, symSize: 0xC0 }
  - { offsetInCU: 0x66A4, offset: 0xEDA1, size: 0x8, addend: 0x0, symName: __ZNSt3__113basic_istreamIcNS_11char_traitsIcEEE7getlineB8ue170006EPcl, symObjAddr: 0x508, symBinAddr: 0x1000025D4, symSize: 0x68 }
  - { offsetInCU: 0x66E6, offset: 0xEDE3, size: 0x8, addend: 0x0, symName: __ZNSt3__18ios_base4setfB8ue170006Ejj, symObjAddr: 0x5D0, symBinAddr: 0x100002694, symSize: 0x5C }
  - { offsetInCU: 0x6739, offset: 0xEE36, size: 0x8, addend: 0x0, symName: __ZNSt3__18ios_base6unsetfB8ue170006Ej, symObjAddr: 0x62C, symBinAddr: 0x1000026F0, symSize: 0x28 }
  - { offsetInCU: 0x676E, offset: 0xEE6B, size: 0x8, addend: 0x0, symName: __ZNSt3__18__iom_t5C1B8ue170006Ei, symObjAddr: 0x654, symBinAddr: 0x100002718, symSize: 0x34 }
  - { offsetInCU: 0x67A4, offset: 0xEEA1, size: 0x8, addend: 0x0, symName: __ZNSt3__18__iom_t5C2B8ue170006Ei, symObjAddr: 0x688, symBinAddr: 0x10000274C, symSize: 0x20 }
  - { offsetInCU: 0x67F8, offset: 0xEEF5, size: 0x8, addend: 0x0, symName: __ZNSt3__18ios_base9precisionB8ue170006El, symObjAddr: 0x118C, symBinAddr: 0x10000276C, symSize: 0x2C }
  - { offsetInCU: 0x62B6, offset: 0x15221, size: 0x8, addend: 0x0, symName: __ZN6senecarsERNSt3__113basic_istreamIcNS0_11char_traitsIcEEEERNS_14SavingsAccountE, symObjAddr: 0x688, symBinAddr: 0x100002C70, symSize: 0x2C }
  - { offsetInCU: 0x62F0, offset: 0x1525B, size: 0x8, addend: 0x0, symName: __ZN6senecalsERNSt3__113basic_ostreamIcNS0_11char_traitsIcEEEERKNS_14SavingsAccountE, symObjAddr: 0x6B4, symBinAddr: 0x100002C9C, symSize: 0x2C }
  - { offsetInCU: 0x63B3, offset: 0x1531E, size: 0x8, addend: 0x0, symName: __ZN6seneca14SavingsAccountC2EPKcNS_4DateENS_11DepositInfoEddS3_, symObjAddr: 0x0, symBinAddr: 0x100002798, symSize: 0x108 }
  - { offsetInCU: 0x6434, offset: 0x1539F, size: 0x8, addend: 0x0, symName: __ZN6seneca14SavingsAccountC1EPKcNS_4DateENS_11DepositInfoEddS3_, symObjAddr: 0x108, symBinAddr: 0x1000028A0, symSize: 0xE0 }
  - { offsetInCU: 0x64B4, offset: 0x1541F, size: 0x8, addend: 0x0, symName: __ZN6seneca14SavingsAccount13applyInterestERNS_4DateE, symObjAddr: 0x1E8, symBinAddr: 0x100002980, symSize: 0x17C }
  - { offsetInCU: 0x6504, offset: 0x1546F, size: 0x8, addend: 0x0, symName: __ZNK6seneca14SavingsAccount13writeInterestERNSt3__113basic_ostreamIcNS1_11char_traitsIcEEEE, symObjAddr: 0x50C, symBinAddr: 0x100002AFC, symSize: 0x70 }
  - { offsetInCU: 0x6538, offset: 0x154A3, size: 0x8, addend: 0x0, symName: __ZNK6seneca14SavingsAccount5writeERNSt3__113basic_ostreamIcNS1_11char_traitsIcEEEE, symObjAddr: 0x57C, symBinAddr: 0x100002B6C, symSize: 0x6C }
  - { offsetInCU: 0x656C, offset: 0x154D7, size: 0x8, addend: 0x0, symName: __ZN6seneca14SavingsAccount4readERNSt3__113basic_istreamIcNS1_11char_traitsIcEEEE, symObjAddr: 0x5E8, symBinAddr: 0x100002BD8, symSize: 0x98 }
  - { offsetInCU: 0x4622, offset: 0x19B5F, size: 0x8, addend: 0x0, symName: __ZNSt3__1lsB8ue170006IcNS_11char_traitsIcEEEERNS_13basic_ostreamIT_T0_EES7_RKNS_8__iom_t6E, symObjAddr: 0x280, symBinAddr: 0x100002ED4, symSize: 0x40 }
  - { offsetInCU: 0x4671, offset: 0x19BAE, size: 0x8, addend: 0x0, symName: __ZNSt3__14setwB8ue170006Ei, symObjAddr: 0x308, symBinAddr: 0x100002F14, symSize: 0x2C }
  - { offsetInCU: 0x469F, offset: 0x19BDC, size: 0x8, addend: 0x0, symName: __ZNSt3__1rsB8ue170006IcNS_11char_traitsIcEEEERNS_13basic_istreamIT_T0_EES7_PS4_, symObjAddr: 0x62C, symBinAddr: 0x100003238, symSize: 0x74 }
  - { offsetInCU: 0x4908, offset: 0x19E45, size: 0x8, addend: 0x0, symName: __ZNSt3__116__input_c_stringB8ue170006IcNS_11char_traitsIcEEEERNS_13basic_istreamIT_T0_EES7_PS4_m, symObjAddr: 0x1254, symBinAddr: 0x100003374, symSize: 0x2C0 }
  - { offsetInCU: 0x69C7, offset: 0x1BF04, size: 0x8, addend: 0x0, symName: __ZN6senecalsERNSt3__113basic_ostreamIcNS0_11char_traitsIcEEEERKNS_4DateE, symObjAddr: 0x394, symBinAddr: 0x100002FA0, symSize: 0x30 }
  - { offsetInCU: 0x6A01, offset: 0x1BF3E, size: 0x8, addend: 0x0, symName: __ZN6senecarsERNSt3__113basic_istreamIcNS0_11char_traitsIcEEEERNS_4DateE, symObjAddr: 0x3C4, symBinAddr: 0x100002FD0, symSize: 0x30 }
  - { offsetInCU: 0x6A3B, offset: 0x1BF78, size: 0x8, addend: 0x0, symName: __ZN6senecalsERNSt3__113basic_ostreamIcNS0_11char_traitsIcEEEERKNS_11DepositInfoE, symObjAddr: 0x6A0, symBinAddr: 0x1000032AC, symSize: 0x30 }
  - { offsetInCU: 0x6A75, offset: 0x1BFB2, size: 0x8, addend: 0x0, symName: __ZN6senecarsERNSt3__113basic_istreamIcNS0_11char_traitsIcEEEERNS_11DepositInfoE, symObjAddr: 0x6D0, symBinAddr: 0x1000032DC, symSize: 0x30 }
  - { offsetInCU: 0x6B33, offset: 0x1C070, size: 0x8, addend: 0x0, symName: __ZN6seneca4DateC2Ev, symObjAddr: 0x0, symBinAddr: 0x100002CC8, symSize: 0x2C }
  - { offsetInCU: 0x6B5E, offset: 0x1C09B, size: 0x8, addend: 0x0, symName: __ZN6seneca4DateC1Ev, symObjAddr: 0x2C, symBinAddr: 0x100002CF4, symSize: 0x2C }
  - { offsetInCU: 0x6B88, offset: 0x1C0C5, size: 0x8, addend: 0x0, symName: __ZN6seneca4DateC2Eiii, symObjAddr: 0x58, symBinAddr: 0x100002D20, symSize: 0x44 }
  - { offsetInCU: 0x6BDD, offset: 0x1C11A, size: 0x8, addend: 0x0, symName: __ZN6seneca4DateC1Eiii, symObjAddr: 0x9C, symBinAddr: 0x100002D64, symSize: 0x44 }
  - { offsetInCU: 0x6C31, offset: 0x1C16E, size: 0x8, addend: 0x0, symName: __ZNK6seneca4Date6getDayEv, symObjAddr: 0xE0, symBinAddr: 0x100002DA8, symSize: 0x18 }
  - { offsetInCU: 0x6C57, offset: 0x1C194, size: 0x8, addend: 0x0, symName: __ZNK6seneca4Date8getMonthEv, symObjAddr: 0xF8, symBinAddr: 0x100002DC0, symSize: 0x18 }
  - { offsetInCU: 0x6C7D, offset: 0x1C1BA, size: 0x8, addend: 0x0, symName: __ZNK6seneca4Date7getYearEv, symObjAddr: 0x110, symBinAddr: 0x100002DD8, symSize: 0x18 }
  - { offsetInCU: 0x6CA3, offset: 0x1C1E0, size: 0x8, addend: 0x0, symName: __ZNK6seneca4Date5writeERNSt3__113basic_ostreamIcNS1_11char_traitsIcEEEE, symObjAddr: 0x128, symBinAddr: 0x100002DF0, symSize: 0xE4 }
  - { offsetInCU: 0x6CE5, offset: 0x1C222, size: 0x8, addend: 0x0, symName: __ZN6seneca4Date4readERNSt3__113basic_istreamIcNS1_11char_traitsIcEEEE, symObjAddr: 0x334, symBinAddr: 0x100002F40, symSize: 0x60 }
  - { offsetInCU: 0x6D1E, offset: 0x1C25B, size: 0x8, addend: 0x0, symName: __ZN6seneca11DepositInfoC2Ev, symObjAddr: 0x3F4, symBinAddr: 0x100003000, symSize: 0x20 }
  - { offsetInCU: 0x6D49, offset: 0x1C286, size: 0x8, addend: 0x0, symName: __ZN6seneca11DepositInfoC1Ev, symObjAddr: 0x414, symBinAddr: 0x100003020, symSize: 0x2C }
  - { offsetInCU: 0x6D73, offset: 0x1C2B0, size: 0x8, addend: 0x0, symName: __ZN6seneca11DepositInfoC2EPKcS2_S2_, symObjAddr: 0x440, symBinAddr: 0x10000304C, symSize: 0x74 }
  - { offsetInCU: 0x6DC7, offset: 0x1C304, size: 0x8, addend: 0x0, symName: __ZN6seneca11DepositInfoC1EPKcS2_S2_, symObjAddr: 0x4B4, symBinAddr: 0x1000030C0, symSize: 0x44 }
  - { offsetInCU: 0x6E1B, offset: 0x1C358, size: 0x8, addend: 0x0, symName: __ZNK6seneca11DepositInfo10getTransitEv, symObjAddr: 0x4F8, symBinAddr: 0x100003104, symSize: 0x14 }
  - { offsetInCU: 0x6E41, offset: 0x1C37E, size: 0x8, addend: 0x0, symName: __ZNK6seneca11DepositInfo14getInstitutionEv, symObjAddr: 0x50C, symBinAddr: 0x100003118, symSize: 0x18 }
  - { offsetInCU: 0x6E67, offset: 0x1C3A4, size: 0x8, addend: 0x0, symName: __ZNK6seneca11DepositInfo10getAccountEv, symObjAddr: 0x524, symBinAddr: 0x100003130, symSize: 0x18 }
  - { offsetInCU: 0x6E8D, offset: 0x1C3CA, size: 0x8, addend: 0x0, symName: __ZNK6seneca11DepositInfo5writeERNSt3__113basic_ostreamIcNS1_11char_traitsIcEEEE, symObjAddr: 0x53C, symBinAddr: 0x100003148, symSize: 0x60 }
  - { offsetInCU: 0x6EC1, offset: 0x1C3FE, size: 0x8, addend: 0x0, symName: __ZN6seneca11DepositInfo4readERNSt3__113basic_istreamIcNS1_11char_traitsIcEEEE, symObjAddr: 0x59C, symBinAddr: 0x1000031A8, symSize: 0x90 }
  - { offsetInCU: 0x6EF5, offset: 0x1C432, size: 0x8, addend: 0x0, symName: __ZNSt3__18__iom_t6C1B8ue170006Ei, symObjAddr: 0x700, symBinAddr: 0x10000330C, symSize: 0x34 }
  - { offsetInCU: 0x6F2B, offset: 0x1C468, size: 0x8, addend: 0x0, symName: __ZNSt3__18__iom_t6C2B8ue170006Ei, symObjAddr: 0x734, symBinAddr: 0x100003340, symSize: 0x20 }
  - { offsetInCU: 0x6F85, offset: 0x1C4C2, size: 0x8, addend: 0x0, symName: __ZNSt3__114numeric_limitsIlE3maxB8ue170006Ev, symObjAddr: 0x1240, symBinAddr: 0x100003360, symSize: 0x14 }
  - { offsetInCU: 0x6F98, offset: 0x1C4D5, size: 0x8, addend: 0x0, symName: __ZNSt3__123__libcpp_numeric_limitsIlLb1EE3maxB8ue170006Ev, symObjAddr: 0x1514, symBinAddr: 0x100003634, symSize: 0x8 }
  - { offsetInCU: 0x6FCA, offset: 0x1C507, size: 0x8, addend: 0x0, symName: __ZNKSt3__113basic_istreamIcNS_11char_traitsIcEEE6sentrycvbB8ue170006Ev, symObjAddr: 0x151C, symBinAddr: 0x10000363C, symSize: 0x1C }
  - { offsetInCU: 0x6FED, offset: 0x1C52A, size: 0x8, addend: 0x0, symName: __ZNSt3__115basic_streambufIcNS_11char_traitsIcEEE5sgetcB8ue170006Ev, symObjAddr: 0x1538, symBinAddr: 0x100003658, symSize: 0x70 }
  - { offsetInCU: 0x7011, offset: 0x1C54E, size: 0x8, addend: 0x0, symName: __ZNSt3__111char_traitsIcE12to_char_typeB8ue170006Ei, symObjAddr: 0x15A8, symBinAddr: 0x1000036C8, symSize: 0x18 }
  - { offsetInCU: 0x7033, offset: 0x1C570, size: 0x8, addend: 0x0, symName: __ZNKSt3__15ctypeIcE2isB8ue170006Ejc, symObjAddr: 0x15C0, symBinAddr: 0x1000036E0, symSize: 0x7C }
  - { offsetInCU: 0x7075, offset: 0x1C5B2, size: 0x8, addend: 0x0, symName: __ZNSt3__115basic_streambufIcNS_11char_traitsIcEEE6sbumpcB8ue170006Ev, symObjAddr: 0x163C, symBinAddr: 0x10000375C, symSize: 0x78 }
  - { offsetInCU: 0x709A, offset: 0x1C5D7, size: 0x8, addend: 0x0, symName: __ZNSt3__18ios_base18__setstate_nothrowB8ue170006Ej, symObjAddr: 0x16B4, symBinAddr: 0x1000037D4, symSize: 0x64 }
  - { offsetInCU: 0x70CC, offset: 0x1C609, size: 0x8, addend: 0x0, symName: __ZNKSt3__19basic_iosIcNS_11char_traitsIcEEE10exceptionsB8ue170006Ev, symObjAddr: 0x1718, symBinAddr: 0x100003838, symSize: 0x24 }
  - { offsetInCU: 0x70F0, offset: 0x1C62D, size: 0x8, addend: 0x0, symName: __ZNSt3__111char_traitsIcE11to_int_typeB8ue170006Ec, symObjAddr: 0x173C, symBinAddr: 0x10000385C, symSize: 0x14 }
  - { offsetInCU: 0x7113, offset: 0x1C650, size: 0x8, addend: 0x0, symName: __Z7isasciii, symObjAddr: 0x1750, symBinAddr: 0x100003870, symSize: 0x24 }
  - { offsetInCU: 0x7140, offset: 0x1C67D, size: 0x8, addend: 0x0, symName: __ZNKSt3__18ios_base10exceptionsB8ue170006Ev, symObjAddr: 0x1774, symBinAddr: 0x100003894, symSize: 0x18 }
...
